target datalayout = "e-m:e-p270:32:32-p271:32:32-p272:64:64-i64:64-i128:128-f80:128-n8:16:32:64-S128"
target triple = "x86_64-pc-linux-gnu"

%struct.pg_checksum_context = type { i32, %union.pg_checksum_raw_context }
%union.pg_checksum_raw_context = type { ptr }

@.str = private unnamed_addr constant [29 x i8] c"could not open file \22%s\22: %m\00", align 1
@.str.1 = private unnamed_addr constant [30 x i8] c"could not close file \22%s\22: %m\00", align 1
@.str.2 = private unnamed_addr constant [6 x i8] c"clone\00", align 1
@.str.3 = private unnamed_addr constant [16 x i8] c"copy_file_range\00", align 1
@__pg_log_level = external global i32, align 4
@.str.4 = private unnamed_addr constant [42 x i8] c"would copy \22%s\22 to \22%s\22 using strategy %s\00", align 1
@.str.5 = private unnamed_addr constant [24 x i8] c"would copy \22%s\22 to \22%s\22\00", align 1
@.str.6 = private unnamed_addr constant [39 x i8] c"copying \22%s\22 to \22%s\22 using strategy %s\00", align 1
@.str.7 = private unnamed_addr constant [21 x i8] c"copying \22%s\22 to \22%s\22\00", align 1
@.str.8 = private unnamed_addr constant [46 x i8] c"copying \22%s\22 to \22%s\22 and checksumming with %s\00", align 1

; Function Attrs: nounwind uwtable
define dso_local void @copy_file(ptr noundef %0, ptr noundef %1, ptr noundef %2, i32 noundef %3, i1 noundef zeroext %4) #0 {
  %6 = alloca ptr, align 8
  %7 = alloca ptr, align 8
  %8 = alloca ptr, align 8
  %9 = alloca i32, align 4
  %10 = alloca i8, align 1
  %11 = alloca ptr, align 8
  %12 = alloca ptr, align 8
  %13 = alloca i32, align 4
  store ptr %0, ptr %6, align 8
  store ptr %1, ptr %7, align 8
  store ptr %2, ptr %8, align 8
  store i32 %3, ptr %9, align 4
  %14 = zext i1 %4 to i8
  store i8 %14, ptr %10, align 1
  call void @llvm.lifetime.start.p0(i64 8, ptr %11) #7
  store ptr null, ptr %11, align 8
  call void @llvm.lifetime.start.p0(i64 8, ptr %12) #7
  store ptr null, ptr %12, align 8
  %15 = load i8, ptr %10, align 1, !range !4, !noundef !5
  %16 = trunc i8 %15 to i1
  br i1 %16, label %17, label %36

17:                                               ; preds = %5
  call void @llvm.lifetime.start.p0(i64 4, ptr %13) #7
  %18 = load ptr, ptr %6, align 8
  %19 = call i32 (ptr, i32, ...) @open(ptr noundef %18, i32 noundef 0, i32 noundef 0)
  store i32 %19, ptr %13, align 4
  %20 = icmp slt i32 %19, 0
  br i1 %20, label %21, label %26

21:                                               ; preds = %17
  br label %22

22:                                               ; preds = %21
  %23 = load ptr, ptr %6, align 8
  call void (i32, i32, ptr, ...) @pg_log_generic(i32 noundef 4, i32 noundef 0, ptr noundef @.str, ptr noundef %23)
  call void @exit(i32 noundef 1) #8
  unreachable

24:                                               ; No predecessors!
  br label %25

25:                                               ; preds = %24
  br label %26

26:                                               ; preds = %25, %17
  %27 = load i32, ptr %13, align 4
  %28 = call i32 @close(i32 noundef %27)
  %29 = icmp slt i32 %28, 0
  br i1 %29, label %30, label %35

30:                                               ; preds = %26
  br label %31

31:                                               ; preds = %30
  %32 = load ptr, ptr %6, align 8
  call void (i32, i32, ptr, ...) @pg_log_generic(i32 noundef 4, i32 noundef 0, ptr noundef @.str.1, ptr noundef %32)
  call void @exit(i32 noundef 1) #8
  unreachable

33:                                               ; No predecessors!
  br label %34

34:                                               ; preds = %33
  br label %35

35:                                               ; preds = %34, %26
  call void @llvm.lifetime.end.p0(i64 4, ptr %13) #7
  br label %36

36:                                               ; preds = %35, %5
  %37 = load i32, ptr %9, align 4
  switch i32 %37, label %41 [
    i32 0, label %38
    i32 1, label %39
    i32 2, label %40
  ]

38:                                               ; preds = %36
  store ptr @.str.2, ptr %11, align 8
  store ptr @copy_file_clone, ptr %12, align 8
  br label %41

39:                                               ; preds = %36
  store ptr @copy_file_blocks, ptr %12, align 8
  br label %41

40:                                               ; preds = %36
  store ptr @.str.3, ptr %11, align 8
  store ptr @copy_file_by_range, ptr %12, align 8
  br label %41

41:                                               ; preds = %36, %40, %39, %38
  %42 = load i8, ptr %10, align 1, !range !4, !noundef !5
  %43 = trunc i8 %42 to i1
  br i1 %43, label %44, label %81

44:                                               ; preds = %41
  %45 = load ptr, ptr %11, align 8
  %46 = icmp ne ptr %45, null
  br i1 %46, label %47, label %64

47:                                               ; preds = %44
  br label %48

48:                                               ; preds = %47
  %49 = load i32, ptr @__pg_log_level, align 4
  %50 = icmp ule i32 %49, 1
  %51 = zext i1 %50 to i32
  %52 = icmp ne i32 %51, 0
  %53 = zext i1 %52 to i32
  %54 = sext i32 %53 to i64
  %55 = call i64 @llvm.expect.i64(i64 %54, i64 0)
  %56 = icmp ne i64 %55, 0
  br i1 %56, label %57, label %61

57:                                               ; preds = %48
  %58 = load ptr, ptr %6, align 8
  %59 = load ptr, ptr %7, align 8
  %60 = load ptr, ptr %11, align 8
  call void (i32, i32, ptr, ...) @pg_log_generic(i32 noundef 1, i32 noundef 0, ptr noundef @.str.4, ptr noundef %58, ptr noundef %59, ptr noundef %60)
  br label %61

61:                                               ; preds = %57, %48
  br label %62

62:                                               ; preds = %61
  br label %63

63:                                               ; preds = %62
  br label %80

64:                                               ; preds = %44
  br label %65

65:                                               ; preds = %64
  %66 = load i32, ptr @__pg_log_level, align 4
  %67 = icmp ule i32 %66, 1
  %68 = zext i1 %67 to i32
  %69 = icmp ne i32 %68, 0
  %70 = zext i1 %69 to i32
  %71 = sext i32 %70 to i64
  %72 = call i64 @llvm.expect.i64(i64 %71, i64 0)
  %73 = icmp ne i64 %72, 0
  br i1 %73, label %74, label %77

74:                                               ; preds = %65
  %75 = load ptr, ptr %6, align 8
  %76 = load ptr, ptr %7, align 8
  call void (i32, i32, ptr, ...) @pg_log_generic(i32 noundef 1, i32 noundef 0, ptr noundef @.str.5, ptr noundef %75, ptr noundef %76)
  br label %77

77:                                               ; preds = %74, %65
  br label %78

78:                                               ; preds = %77
  br label %79

79:                                               ; preds = %78
  br label %80

80:                                               ; preds = %79, %63
  br label %148

81:                                               ; preds = %41
  %82 = load ptr, ptr %11, align 8
  %83 = icmp ne ptr %82, null
  br i1 %83, label %84, label %101

84:                                               ; preds = %81
  br label %85

85:                                               ; preds = %84
  %86 = load i32, ptr @__pg_log_level, align 4
  %87 = icmp ule i32 %86, 1
  %88 = zext i1 %87 to i32
  %89 = icmp ne i32 %88, 0
  %90 = zext i1 %89 to i32
  %91 = sext i32 %90 to i64
  %92 = call i64 @llvm.expect.i64(i64 %91, i64 0)
  %93 = icmp ne i64 %92, 0
  br i1 %93, label %94, label %98

94:                                               ; preds = %85
  %95 = load ptr, ptr %6, align 8
  %96 = load ptr, ptr %7, align 8
  %97 = load ptr, ptr %11, align 8
  call void (i32, i32, ptr, ...) @pg_log_generic(i32 noundef 1, i32 noundef 0, ptr noundef @.str.6, ptr noundef %95, ptr noundef %96, ptr noundef %97)
  br label %98

98:                                               ; preds = %94, %85
  br label %99

99:                                               ; preds = %98
  br label %100

100:                                              ; preds = %99
  br label %143

101:                                              ; preds = %81
  %102 = load ptr, ptr %8, align 8
  %103 = getelementptr inbounds nuw %struct.pg_checksum_context, ptr %102, i32 0, i32 0
  %104 = load i32, ptr %103, align 8
  %105 = icmp eq i32 %104, 0
  br i1 %105, label %106, label %122

106:                                              ; preds = %101
  br label %107

107:                                              ; preds = %106
  %108 = load i32, ptr @__pg_log_level, align 4
  %109 = icmp ule i32 %108, 1
  %110 = zext i1 %109 to i32
  %111 = icmp ne i32 %110, 0
  %112 = zext i1 %111 to i32
  %113 = sext i32 %112 to i64
  %114 = call i64 @llvm.expect.i64(i64 %113, i64 0)
  %115 = icmp ne i64 %114, 0
  br i1 %115, label %116, label %119

116:                                              ; preds = %107
  %117 = load ptr, ptr %6, align 8
  %118 = load ptr, ptr %7, align 8
  call void (i32, i32, ptr, ...) @pg_log_generic(i32 noundef 1, i32 noundef 0, ptr noundef @.str.7, ptr noundef %117, ptr noundef %118)
  br label %119

119:                                              ; preds = %116, %107
  br label %120

120:                                              ; preds = %119
  br label %121

121:                                              ; preds = %120
  br label %142

122:                                              ; preds = %101
  br label %123

123:                                              ; preds = %122
  %124 = load i32, ptr @__pg_log_level, align 4
  %125 = icmp ule i32 %124, 1
  %126 = zext i1 %125 to i32
  %127 = icmp ne i32 %126, 0
  %128 = zext i1 %127 to i32
  %129 = sext i32 %128 to i64
  %130 = call i64 @llvm.expect.i64(i64 %129, i64 0)
  %131 = icmp ne i64 %130, 0
  br i1 %131, label %132, label %139

132:                                              ; preds = %123
  %133 = load ptr, ptr %6, align 8
  %134 = load ptr, ptr %7, align 8
  %135 = load ptr, ptr %8, align 8
  %136 = getelementptr inbounds nuw %struct.pg_checksum_context, ptr %135, i32 0, i32 0
  %137 = load i32, ptr %136, align 8
  %138 = call ptr @pg_checksum_type_name(i32 noundef %137)
  call void (i32, i32, ptr, ...) @pg_log_generic(i32 noundef 1, i32 noundef 0, ptr noundef @.str.8, ptr noundef %133, ptr noundef %134, ptr noundef %138)
  br label %139

139:                                              ; preds = %132, %123
  br label %140

140:                                              ; preds = %139
  br label %141

141:                                              ; preds = %140
  br label %142

142:                                              ; preds = %141, %121
  br label %143

143:                                              ; preds = %142, %100
  %144 = load ptr, ptr %12, align 8
  %145 = load ptr, ptr %6, align 8
  %146 = load ptr, ptr %7, align 8
  %147 = load ptr, ptr %8, align 8
  call void %144(ptr noundef %145, ptr noundef %146, ptr noundef %147)
  br label %148

148:                                              ; preds = %143, %80
  call void @llvm.lifetime.end.p0(i64 8, ptr %12) #7
  call void @llvm.lifetime.end.p0(i64 8, ptr %11) #7
  ret void
}