; Function Attrs: nounwind uwtable
define dso_local void @copy_file(ptr noundef %0, ptr noundef %1, ptr noundef %2, i32 noundef %3, i1 noundef zeroext %4) local_unnamed_addr #0 {
  br i1 %4, label %6, label %14

6:                                                ; preds = %5
  %7 = tail call i32 (ptr, i32, ...) @open(ptr noundef %0, i32 noundef 0, i32 noundef 0) #7
  %8 = icmp slt i32 %7, 0
  br i1 %8, label %9, label %10

9:                                                ; preds = %6
  tail call void (i32, i32, ptr, ...) @pg_log_generic(i32 noundef 4, i32 noundef 0, ptr noundef nonnull @.str, ptr noundef %0) #7
  tail call void @exit(i32 noundef 1) #8
  unreachable

10:                                               ; preds = %6
  %11 = tail call i32 @close(i32 noundef %7) #7
  %12 = icmp slt i32 %11, 0
  br i1 %12, label %13, label %14

13:                                               ; preds = %10
  tail call void (i32, i32, ptr, ...) @pg_log_generic(i32 noundef 4, i32 noundef 0, ptr noundef nonnull @.str.1, ptr noundef %0) #7
  tail call void @exit(i32 noundef 1) #8
  unreachable

14:                                               ; preds = %10, %5
  switch i32 %3, label %18 [
    i32 0, label %15
    i32 1, label %16
    i32 2, label %17
  ]

15:                                               ; preds = %14
  br label %18

16:                                               ; preds = %14
  br label %18

17:                                               ; preds = %14
  br label %18

18:                                               ; preds = %17, %16, %15, %14
  %.026 = phi ptr [ null, %14 ], [ @copy_file_by_range, %17 ], [ @copy_file_blocks, %16 ], [ @copy_file_clone, %15 ]
  %.not = phi i1 [ true, %14 ], [ false, %17 ], [ true, %16 ], [ false, %15 ]
  %.0 = phi ptr [ null, %14 ], [ @.str.3, %17 ], [ null, %16 ], [ @.str.2, %15 ]
  br i1 %4, label %19, label %26

19:                                               ; preds = %18
  %20 = load i32, ptr @__pg_log_level, align 4
  %21 = icmp ult i32 %20, 2
  br i1 %.not, label %24, label %22

22:                                               ; preds = %19
  br i1 %21, label %23, label %42, !prof !4

23:                                               ; preds = %22
  tail call void (i32, i32, ptr, ...) @pg_log_generic(i32 noundef 1, i32 noundef 0, ptr noundef nonnull @.str.4, ptr noundef %0, ptr noundef %1, ptr noundef %.0) #7
  br label %42

24:                                               ; preds = %19
  br i1 %21, label %25, label %42, !prof !4

25:                                               ; preds = %24
  tail call void (i32, i32, ptr, ...) @pg_log_generic(i32 noundef 1, i32 noundef 0, ptr noundef nonnull @.str.5, ptr noundef %0, ptr noundef %1) #7
  br label %42

26:                                               ; preds = %18
  br i1 %.not, label %31, label %27

27:                                               ; preds = %26
  %28 = load i32, ptr @__pg_log_level, align 4
  %29 = icmp ult i32 %28, 2
  br i1 %29, label %30, label %41, !prof !4

30:                                               ; preds = %27
  tail call void (i32, i32, ptr, ...) @pg_log_generic(i32 noundef 1, i32 noundef 0, ptr noundef nonnull @.str.6, ptr noundef %0, ptr noundef %1, ptr noundef %.0) #7
  br label %41

31:                                               ; preds = %26
  %32 = load i32, ptr %2, align 8
  %33 = icmp eq i32 %32, 0
  %34 = load i32, ptr @__pg_log_level, align 4
  %35 = icmp ult i32 %34, 2
  br i1 %33, label %36, label %38

36:                                               ; preds = %31
  br i1 %35, label %37, label %41, !prof !4

37:                                               ; preds = %36
  tail call void (i32, i32, ptr, ...) @pg_log_generic(i32 noundef 1, i32 noundef 0, ptr noundef nonnull @.str.7, ptr noundef %0, ptr noundef %1) #7
  br label %41

38:                                               ; preds = %31
  br i1 %35, label %39, label %41, !prof !4

39:                                               ; preds = %38
  %40 = tail call ptr @pg_checksum_type_name(i32 noundef %32) #7
  tail call void (i32, i32, ptr, ...) @pg_log_generic(i32 noundef 1, i32 noundef 0, ptr noundef nonnull @.str.8, ptr noundef %0, ptr noundef %1, ptr noundef %40) #7
  br label %41

41:                                               ; preds = %37, %36, %39, %38, %27, %30
  tail call void %.026(ptr noundef %0, ptr noundef %1, ptr noundef %2) #7, !callees !5
  br label %42

42:                                               ; preds = %23, %22, %25, %24, %41
  ret void
}